; ModuleID = 'bench/llvm/original/ASTConsumer.cpp.ll'
source_filename = "bench/llvm/original/ASTConsumer.cpp.ll"
target datalayout = "e-m:e-p270:32:32-p271:32:32-p272:64:64-i64:64-i128:128-f80:128-n8:16:32:64-S128"
target triple = "x86_64-pc-linux-gnu"

$_ZN5clang11ASTConsumerD2Ev = comdat any

$_ZN5clang11ASTConsumerD0Ev = comdat any

$_ZN5clang11ASTConsumer10InitializeERNS_10ASTContextE = comdat any

$_ZN5clang11ASTConsumer30HandleInlineFunctionDefinitionEPNS_12FunctionDeclE = comdat any

$_ZN5clang11ASTConsumer21HandleTranslationUnitERNS_10ASTContextE = comdat any

$_ZN5clang11ASTConsumer23HandleTagDeclDefinitionEPNS_7TagDeclE = comdat any

$_ZN5clang11ASTConsumer31HandleTagDeclRequiredDefinitionEPKNS_7TagDeclE = comdat any

$_ZN5clang11ASTConsumer38HandleCXXImplicitFunctionInstantiationEPNS_12FunctionDeclE = comdat any

$_ZN5clang11ASTConsumer27CompleteTentativeDefinitionEPNS_7VarDeclE = comdat any

$_ZN5clang11ASTConsumer27CompleteExternalDeclarationEPNS_14DeclaratorDeclE = comdat any

$_ZN5clang11ASTConsumer22AssignInheritanceModelEPNS_13CXXRecordDeclE = comdat any

$_ZN5clang11ASTConsumer37HandleCXXStaticMemberVarInstantiationEPNS_7VarDeclE = comdat any

$_ZN5clang11ASTConsumer12HandleVTableEPNS_13CXXRecordDeclE = comdat any

$_ZN5clang11ASTConsumer22GetASTMutationListenerEv = comdat any

$_ZN5clang11ASTConsumer29GetASTDeserializationListenerEv = comdat any

$_ZN5clang11ASTConsumer10PrintStatsEv = comdat any

$_ZN5clang11ASTConsumer22shouldSkipFunctionBodyEPNS_4DeclE = comdat any

@_ZN4llvm24DisableABIBreakingChecksE = external global i32, align 4
@_ZN4llvm30VerifyDisableABIBreakingChecksE = weak hidden local_unnamed_addr global ptr @_ZN4llvm24DisableABIBreakingChecksE, align 8
@_ZTVN5clang11ASTConsumerE = unnamed_addr constant { [23 x ptr] } { [23 x ptr] [ptr null, ptr null, ptr @_ZN5clang11ASTConsumerD2Ev, ptr @_ZN5clang11ASTConsumerD0Ev, ptr @_ZN5clang11ASTConsumer10InitializeERNS_10ASTContextE, ptr @_ZN5clang11ASTConsumer18HandleTopLevelDeclENS_12DeclGroupRefE, ptr @_ZN5clang11ASTConsumer30HandleInlineFunctionDefinitionEPNS_12FunctionDeclE, ptr @_ZN5clang11ASTConsumer21HandleInterestingDeclENS_12DeclGroupRefE, ptr @_ZN5clang11ASTConsumer21HandleTranslationUnitERNS_10ASTContextE, ptr @_ZN5clang11ASTConsumer23HandleTagDeclDefinitionEPNS_7TagDeclE, ptr @_ZN5clang11ASTConsumer31HandleTagDeclRequiredDefinitionEPKNS_7TagDeclE, ptr @_ZN5clang11ASTConsumer38HandleCXXImplicitFunctionInstantiationEPNS_12FunctionDeclE, ptr @_ZN5clang11ASTConsumer33HandleTopLevelDeclInObjCContainerENS_12DeclGroupRefE, ptr @_ZN5clang11ASTConsumer24HandleImplicitImportDeclEPNS_10ImportDeclE, ptr @_ZN5clang11ASTConsumer27CompleteTentativeDefinitionEPNS_7VarDeclE, ptr @_ZN5clang11ASTConsumer27CompleteExternalDeclarationEPNS_14DeclaratorDeclE, ptr @_ZN5clang11ASTConsumer22AssignInheritanceModelEPNS_13CXXRecordDeclE, ptr @_ZN5clang11ASTConsumer37HandleCXXStaticMemberVarInstantiationEPNS_7VarDeclE, ptr @_ZN5clang11ASTConsumer12HandleVTableEPNS_13CXXRecordDeclE, ptr @_ZN5clang11ASTConsumer22GetASTMutationListenerEv, ptr @_ZN5clang11ASTConsumer29GetASTDeserializationListenerEv, ptr @_ZN5clang11ASTConsumer10PrintStatsEv, ptr @_ZN5clang11ASTConsumer22shouldSkipFunctionBodyEPNS_4DeclE] }, align 8

; Function Attrs: mustprogress nofree norecurse nosync nounwind willreturn memory(none) uwtable
define dso_local noundef zeroext i1 @_ZN5clang11ASTConsumer18HandleTopLevelDeclENS_12DeclGroupRefE(ptr nocapture nonnull readnone align 8 %0, ptr nocapture readnone %1) unnamed_addr #0 align 2 {
  ret i1 true
}

; Function Attrs: mustprogress nounwind uwtable
define dso_local void @_ZN5clang11ASTConsumer21HandleInterestingDeclENS_12DeclGroupRefE(ptr noundef nonnull align 8 dereferenceable(9) %0, ptr %1) unnamed_addr #1 align 2 {
  %3 = load ptr, ptr %0, align 8
  %4 = getelementptr inbounds i8, ptr %3, i64 24
  %5 = load ptr, ptr %4, align 8
  %6 = tail call noundef zeroext i1 %5(ptr noundef nonnull align 8 dereferenceable(9) %0, ptr %1) #3
  ret void
}

; Function Attrs: mustprogress nofree norecurse nosync nounwind willreturn memory(none) uwtable
define dso_local void @_ZN5clang11ASTConsumer33HandleTopLevelDeclInObjCContainerENS_12DeclGroupRefE(ptr nocapture nonnull readnone align 8 %0, ptr nocapture readnone %1) unnamed_addr #0 align 2 {
  ret void
}

; Function Attrs: mustprogress nounwind uwtable
define dso_local void @_ZN5clang11ASTConsumer24HandleImplicitImportDeclEPNS_10ImportDeclE(ptr noundef nonnull align 8 dereferenceable(9) %0, ptr noundef %1) unnamed_addr #1 align 2 {
  %3 = load ptr, ptr %0, align 8
  %4 = getelementptr inbounds i8, ptr %3, i64 24
  %5 = load ptr, ptr %4, align 8
  %6 = tail call noundef zeroext i1 %5(ptr noundef nonnull align 8 dereferenceable(9) %0, ptr %1) #3
  ret void
}

; Function Attrs: mustprogress nounwind uwtable
define linkonce_odr hidden void @_ZN5clang11ASTConsumerD2Ev(ptr noundef nonnull align 8 dereferenceable(9) %0) unnamed_addr #1 comdat align 2 {
  ret void
}

; Function Attrs: mustprogress nounwind uwtable
define linkonce_odr hidden void @_ZN5clang11ASTConsumerD0Ev(ptr noundef nonnull align 8 dereferenceable(9) %0) unnamed_addr #1 comdat align 2 {
  tail call void @_ZdlPvm(ptr noundef nonnull %0, i64 noundef 16) #4
  ret void
}

; Function Attrs: mustprogress nounwind uwtable
define linkonce_odr hidden void @_ZN5clang11ASTConsumer10InitializeERNS_10ASTContextE(ptr noundef nonnull align 8 dereferenceable(9) %0, ptr noundef nonnull align 1 %1) unnamed_addr #1 comdat align 2 {
  ret void
}

; Function Attrs: mustprogress nounwind uwtable
define linkonce_odr hidden void @_ZN5clang11ASTConsumer30HandleInlineFunctionDefinitionEPNS_12FunctionDeclE(ptr noundef nonnull align 8 dereferenceable(9) %0, ptr noundef %1) unnamed_addr #1 comdat align 2 {
  ret void
}

; Function Attrs: mustprogress nounwind uwtable
define linkonce_odr hidden void @_ZN5clang11ASTConsumer21HandleTranslationUnitERNS_10ASTContextE(ptr noundef nonnull align 8 dereferenceable(9) %0, ptr noundef nonnull align 1 %1) unnamed_addr #1 comdat align 2 {
  ret void
}

; Function Attrs: mustprogress nounwind uwtable
define linkonce_odr hidden void @_ZN5clang11ASTConsumer23HandleTagDeclDefinitionEPNS_7TagDeclE(ptr noundef nonnull align 8 dereferenceable(9) %0, ptr noundef %1) unnamed_addr #1 comdat align 2 {
  ret void
}

; Function Attrs: mustprogress nounwind uwtable
define linkonce_odr hidden void @_ZN5clang11ASTConsumer31HandleTagDeclRequiredDefinitionEPKNS_7TagDeclE(ptr noundef nonnull align 8 dereferenceable(9) %0, ptr noundef %1) unnamed_addr #1 comdat align 2 {
  ret void
}

; Function Attrs: mustprogress nounwind uwtable
define linkonce_odr hidden void @_ZN5clang11ASTConsumer38HandleCXXImplicitFunctionInstantiationEPNS_12FunctionDeclE(ptr noundef nonnull align 8 dereferenceable(9) %0, ptr noundef %1) unnamed_addr #1 comdat align 2 {
  ret void
}

; Function Attrs: mustprogress nounwind uwtable
define linkonce_odr hidden void @_ZN5clang11ASTConsumer27CompleteTentativeDefinitionEPNS_7VarDeclE(ptr noundef nonnull align 8 dereferenceable(9) %0, ptr noundef %1) unnamed_addr #1 comdat align 2 {
  ret void
}

; Function Attrs: mustprogress nounwind uwtable
define linkonce_odr hidden void @_ZN5clang11ASTConsumer27CompleteExternalDeclarationEPNS_14DeclaratorDeclE(ptr noundef nonnull align 8 dereferenceable(9) %0, ptr noundef %1) unnamed_addr #1 comdat align 2 {
  ret void
}

; Function Attrs: mustprogress nounwind uwtable
define linkonce_odr hidden void @_ZN5clang11ASTConsumer22AssignInheritanceModelEPNS_13CXXRecordDeclE(ptr noundef nonnull align 8 dereferenceable(9) %0, ptr noundef %1) unnamed_addr #1 comdat align 2 {
  ret void
}

; Function Attrs: mustprogress nounwind uwtable
define linkonce_odr hidden void @_ZN5clang11ASTConsumer37HandleCXXStaticMemberVarInstantiationEPNS_7VarDeclE(ptr noundef nonnull align 8 dereferenceable(9) %0, ptr noundef %1) unnamed_addr #1 comdat align 2 {
  ret void
}

; Function Attrs: mustprogress nounwind uwtable
define linkonce_odr hidden void @_ZN5clang11ASTConsumer12HandleVTableEPNS_13CXXRecordDeclE(ptr noundef nonnull align 8 dereferenceable(9) %0, ptr noundef %1) unnamed_addr #1 comdat align 2 {
  ret void
}

; Function Attrs: mustprogress nounwind uwtable
define linkonce_odr hidden noundef ptr @_ZN5clang11ASTConsumer22GetASTMutationListenerEv(ptr noundef nonnull align 8 dereferenceable(9) %0) unnamed_addr #1 comdat align 2 {
  ret ptr null
}

; Function Attrs: mustprogress nounwind uwtable
define linkonce_odr hidden noundef ptr @_ZN5clang11ASTConsumer29GetASTDeserializationListenerEv(ptr noundef nonnull align 8 dereferenceable(9) %0) unnamed_addr #1 comdat align 2 {
  ret ptr null
}

; Function Attrs: mustprogress nounwind uwtable
define linkonce_odr hidden void @_ZN5clang11ASTConsumer10PrintStatsEv(ptr noundef nonnull align 8 dereferenceable(9) %0) unnamed_addr #1 comdat align 2 {
  ret void
}

; Function Attrs: mustprogress nounwind uwtable
define linkonce_odr hidden noundef zeroext i1 @_ZN5clang11ASTConsumer22shouldSkipFunctionBodyEPNS_4DeclE(ptr noundef nonnull align 8 dereferenceable(9) %0, ptr noundef %1) unnamed_addr #1 comdat align 2 {
  ret i1 true
}

; Function Attrs: nobuiltin nounwind
declare void @_ZdlPvm(ptr noundef, i64 noundef) local_unnamed_addr #2


!llvm.module.flags = !{!0, !1, !2, !3}

!0 = !{i32 1, !"wchar_size", i32 4}
!1 = !{i32 8, !"PIC Level", i32 2}
!2 = !{i32 7, !"uwtable", i32 2}
!3 = !{i32 7, !"frame-pointer", i32 2}
